; Function Attrs: nounwind uwtable
define internal void @mv_done(ptr noundef readonly captures(none) %0) #0 {
  %2 = getelementptr i8, ptr %0, i64 24
  %.val = load ptr, ptr %2, align 8, !tbaa !172
  %3 = getelementptr i8, ptr %0, i64 32
  %.val1 = load ptr, ptr %3, align 8, !tbaa !173
  %4 = getelementptr inbounds nuw i8, ptr %.val, i64 32
  %5 = load ptr, ptr %4, align 8, !tbaa !13
  %6 = getelementptr inbounds nuw i8, ptr %5, i64 21288
  %7 = load ptr, ptr %6, align 8, !tbaa !23
  %8 = getelementptr inbounds nuw i8, ptr %.val, i64 20
  %9 = load i32, ptr %8, align 4, !tbaa !82
  %10 = getelementptr inbounds nuw i8, ptr %.val, i64 24
  %11 = load i32, ptr %10, align 8, !tbaa !83
  tail call fastcc void @frame_thread_add_score(ptr noundef readonly %.val1, ptr noundef %7, i32 noundef %9, i32 noundef %11, i32 noundef 1)
  %12 = getelementptr inbounds nuw i8, ptr %7, i64 44
  %13 = atomicrmw sub ptr %12, i32 1 seq_cst, align 4
  %14 = icmp eq i32 %13, 1
  br i1 %14, label %15, label %progress_done.exit

15:                                               ; preds = %1
  %16 = getelementptr inbounds nuw i8, ptr %7, i64 56
  %17 = tail call i32 @pthread_mutex_lock(ptr noundef nonnull %16) #7
  %18 = getelementptr inbounds nuw i8, ptr %7, i64 96
  %19 = tail call i32 @pthread_cond_signal(ptr noundef nonnull %18) #7
  %20 = tail call i32 @pthread_mutex_unlock(ptr noundef nonnull %16) #7
  br label %progress_done.exit

progress_done.exit:                               ; preds = %1, %15
  ret void
}